Certificate Request:
    Data:
        Version: 0 (0x0)
        Subject: C=RU, L=МОСКВА, O="АКБ "РУССЛАВБАНК" (ЗАО)", OU=УИОСС, T=Начальник управления Лапшин Михаил Анатольевич, CN="XXXX, Соглашение ТЕСТОВЫЙ КЛЮЧ. Ключ 1", Email=ts@russlavbank.com
        Subject Public Key Info:
            Public Key Algorithm: ecr3410
            ECGOST Public Key:
                pub: 
                    04:83:37:eb:ce:b3:69:36:0f:4a:3b:b1:8c:2a:53:
                    89:51:b1:eb:6a:de:4b:6d:b8:c3:61:85:67:3a:af:
                    d5:6c:5e:8b:f8:23:f2:d4:d9:6f:bc:b0:c1:4f:72:
                    96:48:3f:e5:e3:29:c4:62:30:40:6c:ec:7b:8d:a8:
                    8b:ee:b4:5c:ab
                prime:  (256 bits)
                    00:ff:ff:ff:ff:00:00:00:01:00:00:00:00:00:00:
                    00:00:00:00:00:00:ff:ff:ff:ff:ff:ff:ff:ff:ff:
                    ff:ff:ff
                a:  (256 bits)
                    00:ff:ff:ff:ff:00:00:00:01:00:00:00:00:00:00:
                    00:00:00:00:00:00:ff:ff:ff:ff:ff:ff:ff:ff:ff:
                    ff:ff:fc
                b:  (255 bits)
                    5a:c6:35:d8:aa:3a:93:e7:b3:eb:bd:55:76:98:86:
                    bc:65:1d:06:b0:cc:53:b0:f6:3b:ce:3c:3e:27:d2:
                    60:4b
                base: 
                    04:6b:17:d1:f2:e1:2c:42:47:f8:bc:e6:e5:63:a4:
                    40:f2:77:03:7d:81:2d:eb:33:a0:f4:a1:39:45:d8:
                    98:c2:96:4f:e3:42:e2:fe:1a:7f:9b:8e:e7:eb:4a:
                    7c:0f:9e:16:2b:ce:33:57:6b:31:5e:ce:cb:b6:40:
                    68:37:bf:51:f5
                order:  (256 bits)
                    00:ff:ff:ff:ff:00:00:00:00:ff:ff:ff:ff:ff:ff:
                    ff:ff:bc:e6:fa:ad:a7:17:9e:84:f3:b9:ca:c2:fc:
                    63:25:51
                cofactor:  (1 bit)
                    01
        Attributes:
            a0:00
    Signature Algorithm: ecr3410WithR3411
        30:46:02:21:00:f0:22:cb:e7:83:d0:a5:f1:f3:f6:76:4f:66:
        44:31:b7:08:61:c3:1c:80:7d:d0:43:48:65:cc:bd:0c:fd:95:
        a1:02:21:00:81:7b:c6:f0:79:f9:3a:ff:9f:a4:71:e4:12:0b:
        25:0f:2f:84:5f:2c:70:7f:47:6e:28:3f:4a:ec:d2:24:a1:da
-----BEGIN CERTIFICATE REQUEST-----
MIICgTCCAiICAQAwgd0xCzAJBgNVBAYTAlJVMQ8wDQYDVQQHFAbMztHKwsAxIDAe
BgNVBAoUF8DKwSAi0NPR0cvAwsHAzcoiICjHwM4pMQ4wDAYDVQQLFAXTyM7R0TE3
MDUGA1UEDBQuzeD34Ov87ejqIPPv8ODi6+Xt6P8gy+Dv+OjtIMzo9eDo6yDA7eDy
7uv85eLo9zEvMC0GA1UEAxQmWFhYWCwg0e7j6+D45e3o5SDSxdHSzsLbySDKy97X
LiDK6/73IDExITAfBgkqhkiG9w0BCQEWEnRzQHJ1c3NsYXZiYW5rLmNvbTCCATkw
gfAGCisGAQQBrVkBBgIwgeECAQEwLAYHKoZIzj0BAQIhAP////8AAAABAAAAAAAA
AAAAAAAA////////////////MEUCIQD/////AAAAAQAAAAAAAAAAAAAAAP//////
/////////AIgWsY12Ko6k+ez671VdpiGvGUdBrDMU7D2O848PifSYEsEQQRrF9Hy
4SxCR/i85uVjpEDydwN9gS3rM6D0oTlF2JjClk/jQuL+Gn+bjufrSnwPnhYrzjNX
azFezsu2QGg3v1H1AiEA/////wAAAAD//////////7zm+q2nF56E87nKwvxjJVEC
AQEDRAAEQQSDN+vOs2k2D0o7sYwqU4lRsetq3kttuMNhhWc6r9VsXov4I/LU2W+8
sMFPcpZIP+XjKcRiMEBs7HuNqIvutFyroAAwDgYKKwYBBAGtWQEDAgUAA0kAMEYC
IQDwIsvng9Cl8fP2dk9mRDG3CGHDHIB90ENIZcy9DP2VoQIhAIF7xvB5+Tr/n6Rx
5BILJQ8vhF8scH9Hbig/SuzSJKHa
-----END CERTIFICATE REQUEST-----
